; Function Attrs: nounwind uwtable
define void @Java_sun_awt_X11_XlibWrapper_XDestroyImage(ptr nocapture noundef readnone %0, ptr nocapture noundef readnone %1, i64 noundef %2) local_unnamed_addr #0 {
  %4 = inttoptr i64 %2 to ptr
  %5 = getelementptr inbounds i8, ptr %4, i64 16
  store ptr null, ptr %5, align 8
  %6 = getelementptr inbounds i8, ptr %4, i64 96
  %7 = load ptr, ptr %6, align 8
  %8 = tail call i32 %7(ptr noundef %4) #14
  ret void
}